; Function Attrs: mustprogress nofree norecurse nosync nounwind willreturn memory(argmem: readwrite) uwtable
define internal nonnull ptr @Pack4BytesSwapFirst(ptr nocapture readnone %0, ptr nocapture noundef readonly %1, ptr noundef writeonly %2, i32 %3) #3 {
  %5 = getelementptr inbounds i8, ptr %1, i64 6
  %6 = load i16, ptr %5, align 2
  %7 = zext i16 %6 to i32
  %8 = mul nuw i32 %7, 65281
  %9 = add nuw i32 %8, 8388608
  %10 = lshr i32 %9, 24
  %11 = trunc nuw i32 %10 to i8
  %12 = getelementptr inbounds i8, ptr %2, i64 1
  store i8 %11, ptr %2, align 1
  %13 = load i16, ptr %1, align 2
  %14 = zext i16 %13 to i32
  %15 = mul nuw i32 %14, 65281
  %16 = add nuw i32 %15, 8388608
  %17 = lshr i32 %16, 24
  %18 = trunc nuw i32 %17 to i8
  %19 = getelementptr inbounds i8, ptr %2, i64 2
  store i8 %18, ptr %12, align 1
  %20 = getelementptr inbounds i8, ptr %1, i64 2
  %21 = load i16, ptr %20, align 2
  %22 = zext i16 %21 to i32
  %23 = mul nuw i32 %22, 65281
  %24 = add nuw i32 %23, 8388608
  %25 = lshr i32 %24, 24
  %26 = trunc nuw i32 %25 to i8
  %27 = getelementptr inbounds i8, ptr %2, i64 3
  store i8 %26, ptr %19, align 1
  %28 = getelementptr inbounds i8, ptr %1, i64 4
  %29 = load i16, ptr %28, align 2
  %30 = zext i16 %29 to i32
  %31 = mul nuw i32 %30, 65281
  %32 = add nuw i32 %31, 8388608
  %33 = lshr i32 %32, 24
  %34 = trunc nuw i32 %33 to i8
  %35 = getelementptr inbounds i8, ptr %2, i64 4
  store i8 %34, ptr %27, align 1
  ret ptr %35
}